target datalayout = "e-m:e-p270:32:32-p271:32:32-p272:64:64-i64:64-i128:128-f80:128-n8:16:32:64-S128"
target triple = "x86_64-pc-linux-gnu"

%struct.png_struct_def = type { [1 x %struct.__jmp_buf_tag], ptr, ptr, i64, ptr, ptr, ptr, ptr, ptr, ptr, ptr, ptr, ptr, i8, i8, i32, i32, i32, i32, %struct.z_stream_s, ptr, i32, i32, i32, i32, i32, i32, i32, i32, i32, i32, i32, i32, i32, i32, i32, i32, i32, i32, i32, i32, i32, i64, i32, i32, i32, ptr, ptr, ptr, ptr, i64, i32, i32, ptr, i16, i32, i16, i8, i8, i8, i8, i8, i8, i8, i8, i8, i8, i8, i8, i8, i8, i8, i16, i8, i32, %struct.png_color_16_struct, %struct.png_color_16_struct, ptr, i32, i32, %struct.png_xy, i32, i32, i32, i32, i32, ptr, ptr, ptr, ptr, ptr, ptr, %struct.png_color_8_struct, %struct.png_color_8_struct, ptr, %struct.png_color_16_struct, ptr, ptr, ptr, ptr, ptr, ptr, ptr, ptr, ptr, i32, i32, i64, i64, i64, i64, i32, i32, ptr, ptr, i32, [29 x i8], i32, ptr, ptr, i32, i32, ptr, i8, i8, i16, i16, ptr, i32, i8, ptr, ptr, ptr, ptr, ptr, ptr, ptr, i8, i32, i32, i32, i64, %struct.png_unknown_chunk_t, i64, ptr, i64, i32, i32, ptr, [4 x ptr] }
%struct.__jmp_buf_tag = type { [8 x i64], i32, %struct.__sigset_t }
%struct.__sigset_t = type { [16 x i64] }
%struct.z_stream_s = type { ptr, i32, i64, ptr, i32, i64, ptr, ptr, ptr, ptr, ptr, i32, i64, i64 }
%struct.png_xy = type { i32, i32, i32, i32, i32, i32, i32, i32 }
%struct.png_color_8_struct = type { i8, i8, i8, i8, i8 }
%struct.png_color_16_struct = type { i8, i16, i16, i16, i16 }
%struct.png_unknown_chunk_t = type { [5 x i8], ptr, i64, i8 }
%struct.png_compression_buffer = type { ptr, [1 x i8] }
%struct.compression_state = type { ptr, i64, i32, [1024 x i8] }

@.str.47 = private unnamed_addr constant [25 x i8] c"compressed data too long\00", align 1

; Function Attrs: nounwind uwtable
define internal void @optimize_cmf(ptr noundef %0, i64 noundef %1) #0 {
  %3 = alloca ptr, align 8
  %4 = alloca i64, align 8
  %5 = alloca i32, align 4
  %6 = alloca i32, align 4
  %7 = alloca i32, align 4
  %8 = alloca i32, align 4
  store ptr %0, ptr %3, align 8, !tbaa !3
  store i64 %1, ptr %4, align 8, !tbaa !30
  %9 = load i64, ptr %4, align 8, !tbaa !30
  %10 = icmp ule i64 %9, 16384
  br i1 %10, label %11, label %78

11:                                               ; preds = %2
  call void @llvm.lifetime.start.p0(i64 4, ptr %5) #7
  %12 = load ptr, ptr %3, align 8, !tbaa !3
  %13 = getelementptr inbounds i8, ptr %12, i64 0
  %14 = load i8, ptr %13, align 1, !tbaa !10
  %15 = zext i8 %14 to i32
  store i32 %15, ptr %5, align 4, !tbaa !8
  %16 = load i32, ptr %5, align 4, !tbaa !8
  %17 = and i32 %16, 15
  %18 = icmp eq i32 %17, 8
  br i1 %18, label %19, label %77

19:                                               ; preds = %11
  %20 = load i32, ptr %5, align 4, !tbaa !8
  %21 = and i32 %20, 240
  %22 = icmp ule i32 %21, 112
  br i1 %22, label %23, label %77

23:                                               ; preds = %19
  call void @llvm.lifetime.start.p0(i64 4, ptr %6) #7
  call void @llvm.lifetime.start.p0(i64 4, ptr %7) #7
  %24 = load i32, ptr %5, align 4, !tbaa !8
  %25 = lshr i32 %24, 4
  store i32 %25, ptr %6, align 4, !tbaa !8
  %26 = load i32, ptr %6, align 4, !tbaa !8
  %27 = add i32 %26, 7
  %28 = shl i32 1, %27
  store i32 %28, ptr %7, align 4, !tbaa !8
  %29 = load i64, ptr %4, align 8, !tbaa !30
  %30 = load i32, ptr %7, align 4, !tbaa !8
  %31 = zext i32 %30 to i64
  %32 = icmp ule i64 %29, %31
  br i1 %32, label %33, label %76

33:                                               ; preds = %23
  call void @llvm.lifetime.start.p0(i64 4, ptr %8) #7
  br label %34

34:                                               ; preds = %47, %33
  %35 = load i32, ptr %7, align 4, !tbaa !8
  %36 = lshr i32 %35, 1
  store i32 %36, ptr %7, align 4, !tbaa !8
  %37 = load i32, ptr %6, align 4, !tbaa !8
  %38 = add i32 %37, -1
  store i32 %38, ptr %6, align 4, !tbaa !8
  br label %39

39:                                               ; preds = %34
  %40 = load i32, ptr %6, align 4, !tbaa !8
  %41 = icmp ugt i32 %40, 0
  br i1 %41, label %42, label %47

42:                                               ; preds = %39
  %43 = load i64, ptr %4, align 8, !tbaa !30
  %44 = load i32, ptr %7, align 4, !tbaa !8
  %45 = zext i32 %44 to i64
  %46 = icmp ule i64 %43, %45
  br label %47

47:                                               ; preds = %42, %39
  %48 = phi i1 [ false, %39 ], [ %46, %42 ]
  br i1 %48, label %34, label %49, !llvm.loop !87

49:                                               ; preds = %47
  %50 = load i32, ptr %5, align 4, !tbaa !8
  %51 = and i32 %50, 15
  %52 = load i32, ptr %6, align 4, !tbaa !8
  %53 = shl i32 %52, 4
  %54 = or i32 %51, %53
  store i32 %54, ptr %5, align 4, !tbaa !8
  %55 = load i32, ptr %5, align 4, !tbaa !8
  %56 = trunc i32 %55 to i8
  %57 = load ptr, ptr %3, align 8, !tbaa !3
  %58 = getelementptr inbounds i8, ptr %57, i64 0
  store i8 %56, ptr %58, align 1, !tbaa !10
  %59 = load ptr, ptr %3, align 8, !tbaa !3
  %60 = getelementptr inbounds i8, ptr %59, i64 1
  %61 = load i8, ptr %60, align 1, !tbaa !10
  %62 = zext i8 %61 to i32
  %63 = and i32 %62, 224
  store i32 %63, ptr %8, align 4, !tbaa !8
  %64 = load i32, ptr %5, align 4, !tbaa !8
  %65 = shl i32 %64, 8
  %66 = load i32, ptr %8, align 4, !tbaa !8
  %67 = add i32 %65, %66
  %68 = urem i32 %67, 31
  %69 = sub i32 31, %68
  %70 = load i32, ptr %8, align 4, !tbaa !8
  %71 = add i32 %70, %69
  store i32 %71, ptr %8, align 4, !tbaa !8
  %72 = load i32, ptr %8, align 4, !tbaa !8
  %73 = trunc i32 %72 to i8
  %74 = load ptr, ptr %3, align 8, !tbaa !3
  %75 = getelementptr inbounds i8, ptr %74, i64 1
  store i8 %73, ptr %75, align 1, !tbaa !10
  call void @llvm.lifetime.end.p0(i64 4, ptr %8) #7
  br label %76

76:                                               ; preds = %49, %23
  call void @llvm.lifetime.end.p0(i64 4, ptr %7) #7
  call void @llvm.lifetime.end.p0(i64 4, ptr %6) #7
  br label %77

77:                                               ; preds = %76, %19, %11
  call void @llvm.lifetime.end.p0(i64 4, ptr %5) #7
  br label %78

78:                                               ; preds = %77, %2
  ret void
}

; Function Attrs: nounwind uwtable
define internal i32 @png_text_compress(ptr noalias noundef %0, i32 noundef %1, ptr noundef %2, i32 noundef %3) #0 {
  %5 = alloca i32, align 4
  %6 = alloca ptr, align 8
  %7 = alloca i32, align 4
  %8 = alloca ptr, align 8
  %9 = alloca i32, align 4
  %10 = alloca i32, align 4
  %11 = alloca i32, align 4
  %12 = alloca ptr, align 8
  %13 = alloca i64, align 8
  %14 = alloca i32, align 4
  %15 = alloca i32, align 4
  %16 = alloca ptr, align 8
  store ptr %0, ptr %6, align 8, !tbaa !11
  store i32 %1, ptr %7, align 4, !tbaa !8
  store ptr %2, ptr %8, align 8, !tbaa !90
  store i32 %3, ptr %9, align 4, !tbaa !8
  call void @llvm.lifetime.start.p0(i64 4, ptr %10) #7
  %17 = load ptr, ptr %6, align 8, !tbaa !11
  %18 = load i32, ptr %7, align 4, !tbaa !8
  %19 = load ptr, ptr %8, align 8, !tbaa !90
  %20 = getelementptr inbounds nuw %struct.compression_state, ptr %19, i32 0, i32 1
  %21 = load i64, ptr %20, align 8, !tbaa !92
  %22 = call i32 @png_deflate_claim(ptr noundef %17, i32 noundef %18, i64 noundef %21)
  store i32 %22, ptr %10, align 4, !tbaa !8
  %23 = load i32, ptr %10, align 4, !tbaa !8
  %24 = icmp ne i32 %23, 0
  br i1 %24, label %25, label %27

25:                                               ; preds = %4
  %26 = load i32, ptr %10, align 4, !tbaa !8
  store i32 %26, ptr %5, align 4
  store i32 1, ptr %11, align 4
  br label %193

27:                                               ; preds = %4
  call void @llvm.lifetime.start.p0(i64 8, ptr %12) #7
  %28 = load ptr, ptr %6, align 8, !tbaa !11
  %29 = getelementptr inbounds nuw %struct.png_struct_def, ptr %28, i32 0, i32 20
  store ptr %29, ptr %12, align 8, !tbaa !32
  call void @llvm.lifetime.start.p0(i64 8, ptr %13) #7
  %30 = load ptr, ptr %8, align 8, !tbaa !90
  %31 = getelementptr inbounds nuw %struct.compression_state, ptr %30, i32 0, i32 1
  %32 = load i64, ptr %31, align 8, !tbaa !92
  store i64 %32, ptr %13, align 8, !tbaa !30
  call void @llvm.lifetime.start.p0(i64 4, ptr %14) #7
  %33 = load ptr, ptr %8, align 8, !tbaa !90
  %34 = getelementptr inbounds nuw %struct.compression_state, ptr %33, i32 0, i32 0
  %35 = load ptr, ptr %34, align 8, !tbaa !91
  %36 = load ptr, ptr %6, align 8, !tbaa !11
  %37 = getelementptr inbounds nuw %struct.png_struct_def, ptr %36, i32 0, i32 19
  %38 = getelementptr inbounds nuw %struct.z_stream_s, ptr %37, i32 0, i32 0
  store ptr %35, ptr %38, align 8, !tbaa !67
  %39 = load ptr, ptr %6, align 8, !tbaa !11
  %40 = getelementptr inbounds nuw %struct.png_struct_def, ptr %39, i32 0, i32 19
  %41 = getelementptr inbounds nuw %struct.z_stream_s, ptr %40, i32 0, i32 1
  store i32 0, ptr %41, align 8, !tbaa !68
  %42 = load ptr, ptr %8, align 8, !tbaa !90
  %43 = getelementptr inbounds nuw %struct.compression_state, ptr %42, i32 0, i32 3
  %44 = getelementptr inbounds [1024 x i8], ptr %43, i64 0, i64 0
  %45 = load ptr, ptr %6, align 8, !tbaa !11
  %46 = getelementptr inbounds nuw %struct.png_struct_def, ptr %45, i32 0, i32 19
  %47 = getelementptr inbounds nuw %struct.z_stream_s, ptr %46, i32 0, i32 3
  store ptr %44, ptr %47, align 8, !tbaa !65
  %48 = load ptr, ptr %6, align 8, !tbaa !11
  %49 = getelementptr inbounds nuw %struct.png_struct_def, ptr %48, i32 0, i32 19
  %50 = getelementptr inbounds nuw %struct.z_stream_s, ptr %49, i32 0, i32 4
  store i32 1024, ptr %50, align 8, !tbaa !66
  %51 = load ptr, ptr %6, align 8, !tbaa !11
  %52 = getelementptr inbounds nuw %struct.png_struct_def, ptr %51, i32 0, i32 19
  %53 = getelementptr inbounds nuw %struct.z_stream_s, ptr %52, i32 0, i32 4
  %54 = load i32, ptr %53, align 8, !tbaa !66
  store i32 %54, ptr %14, align 4, !tbaa !8
  br label %55

55:                                               ; preds = %148, %27
  call void @llvm.lifetime.start.p0(i64 4, ptr %15) #7
  store i32 -1, ptr %15, align 4, !tbaa !8
  %56 = load i32, ptr %15, align 4, !tbaa !8
  %57 = zext i32 %56 to i64
  %58 = load i64, ptr %13, align 8, !tbaa !30
  %59 = icmp ugt i64 %57, %58
  br i1 %59, label %60, label %63

60:                                               ; preds = %55
  %61 = load i64, ptr %13, align 8, !tbaa !30
  %62 = trunc i64 %61 to i32
  store i32 %62, ptr %15, align 4, !tbaa !8
  br label %63

63:                                               ; preds = %60, %55
  %64 = load i32, ptr %15, align 4, !tbaa !8
  %65 = zext i32 %64 to i64
  %66 = load i64, ptr %13, align 8, !tbaa !30
  %67 = sub i64 %66, %65
  store i64 %67, ptr %13, align 8, !tbaa !30
  %68 = load i32, ptr %15, align 4, !tbaa !8
  %69 = load ptr, ptr %6, align 8, !tbaa !11
  %70 = getelementptr inbounds nuw %struct.png_struct_def, ptr %69, i32 0, i32 19
  %71 = getelementptr inbounds nuw %struct.z_stream_s, ptr %70, i32 0, i32 1
  store i32 %68, ptr %71, align 8, !tbaa !68
  %72 = load ptr, ptr %6, align 8, !tbaa !11
  %73 = getelementptr inbounds nuw %struct.png_struct_def, ptr %72, i32 0, i32 19
  %74 = getelementptr inbounds nuw %struct.z_stream_s, ptr %73, i32 0, i32 4
  %75 = load i32, ptr %74, align 8, !tbaa !66
  %76 = icmp eq i32 %75, 0
  br i1 %76, label %77, label %128

77:                                               ; preds = %63
  call void @llvm.lifetime.start.p0(i64 8, ptr %16) #7
  %78 = load i32, ptr %14, align 4, !tbaa !8
  %79 = load i32, ptr %9, align 4, !tbaa !8
  %80 = add i32 %78, %79
  %81 = icmp ugt i32 %80, 2147483647
  br i1 %81, label %82, label %83

82:                                               ; preds = %77
  store i32 -4, ptr %10, align 4, !tbaa !8
  store i32 2, ptr %11, align 4
  br label %125

83:                                               ; preds = %77
  %84 = load ptr, ptr %12, align 8, !tbaa !32
  %85 = load ptr, ptr %84, align 8, !tbaa !34
  store ptr %85, ptr %16, align 8, !tbaa !34
  %86 = load ptr, ptr %16, align 8, !tbaa !34
  %87 = icmp eq ptr %86, null
  br i1 %87, label %88, label %104

88:                                               ; preds = %83
  %89 = load ptr, ptr %6, align 8, !tbaa !11
  %90 = load ptr, ptr %6, align 8, !tbaa !11
  %91 = getelementptr inbounds nuw %struct.png_struct_def, ptr %90, i32 0, i32 21
  %92 = load i32, ptr %91, align 8, !tbaa !63
  %93 = zext i32 %92 to i64
  %94 = add i64 8, %93
  %95 = call noalias ptr @png_malloc_base(ptr noundef %89, i64 noundef %94)
  store ptr %95, ptr %16, align 8, !tbaa !34
  %96 = load ptr, ptr %16, align 8, !tbaa !34
  %97 = icmp eq ptr %96, null
  br i1 %97, label %98, label %99

98:                                               ; preds = %88
  store i32 -4, ptr %10, align 4, !tbaa !8
  store i32 2, ptr %11, align 4
  br label %125

99:                                               ; preds = %88
  %100 = load ptr, ptr %16, align 8, !tbaa !34
  %101 = getelementptr inbounds nuw %struct.png_compression_buffer, ptr %100, i32 0, i32 0
  store ptr null, ptr %101, align 8, !tbaa !35
  %102 = load ptr, ptr %16, align 8, !tbaa !34
  %103 = load ptr, ptr %12, align 8, !tbaa !32
  store ptr %102, ptr %103, align 8, !tbaa !34
  br label %104

104:                                              ; preds = %99, %83
  %105 = load ptr, ptr %16, align 8, !tbaa !34
  %106 = getelementptr inbounds nuw %struct.png_compression_buffer, ptr %105, i32 0, i32 1
  %107 = getelementptr inbounds [1 x i8], ptr %106, i64 0, i64 0
  %108 = load ptr, ptr %6, align 8, !tbaa !11
  %109 = getelementptr inbounds nuw %struct.png_struct_def, ptr %108, i32 0, i32 19
  %110 = getelementptr inbounds nuw %struct.z_stream_s, ptr %109, i32 0, i32 3
  store ptr %107, ptr %110, align 8, !tbaa !65
  %111 = load ptr, ptr %6, align 8, !tbaa !11
  %112 = getelementptr inbounds nuw %struct.png_struct_def, ptr %111, i32 0, i32 21
  %113 = load i32, ptr %112, align 8, !tbaa !63
  %114 = load ptr, ptr %6, align 8, !tbaa !11
  %115 = getelementptr inbounds nuw %struct.png_struct_def, ptr %114, i32 0, i32 19
  %116 = getelementptr inbounds nuw %struct.z_stream_s, ptr %115, i32 0, i32 4
  store i32 %113, ptr %116, align 8, !tbaa !66
  %117 = load ptr, ptr %6, align 8, !tbaa !11
  %118 = getelementptr inbounds nuw %struct.png_struct_def, ptr %117, i32 0, i32 19
  %119 = getelementptr inbounds nuw %struct.z_stream_s, ptr %118, i32 0, i32 4
  %120 = load i32, ptr %119, align 8, !tbaa !66
  %121 = load i32, ptr %14, align 4, !tbaa !8
  %122 = add i32 %121, %120
  store i32 %122, ptr %14, align 4, !tbaa !8
  %123 = load ptr, ptr %16, align 8, !tbaa !34
  %124 = getelementptr inbounds nuw %struct.png_compression_buffer, ptr %123, i32 0, i32 0
  store ptr %124, ptr %12, align 8, !tbaa !32
  store i32 0, ptr %11, align 4
  br label %125

125:                                              ; preds = %104, %98, %82
  call void @llvm.lifetime.end.p0(i64 8, ptr %16) #7
  %126 = load i32, ptr %11, align 4
  switch i32 %126, label %145 [
    i32 0, label %127
  ]

127:                                              ; preds = %125
  br label %128

128:                                              ; preds = %127, %63
  %129 = load ptr, ptr %6, align 8, !tbaa !11
  %130 = getelementptr inbounds nuw %struct.png_struct_def, ptr %129, i32 0, i32 19
  %131 = load i64, ptr %13, align 8, !tbaa !30
  %132 = icmp ugt i64 %131, 0
  %133 = select i1 %132, i32 0, i32 4
  %134 = call i32 @deflate(ptr noundef %130, i32 noundef %133)
  store i32 %134, ptr %10, align 4, !tbaa !8
  %135 = load ptr, ptr %6, align 8, !tbaa !11
  %136 = getelementptr inbounds nuw %struct.png_struct_def, ptr %135, i32 0, i32 19
  %137 = getelementptr inbounds nuw %struct.z_stream_s, ptr %136, i32 0, i32 1
  %138 = load i32, ptr %137, align 8, !tbaa !68
  %139 = zext i32 %138 to i64
  %140 = load i64, ptr %13, align 8, !tbaa !30
  %141 = add i64 %140, %139
  store i64 %141, ptr %13, align 8, !tbaa !30
  %142 = load ptr, ptr %6, align 8, !tbaa !11
  %143 = getelementptr inbounds nuw %struct.png_struct_def, ptr %142, i32 0, i32 19
  %144 = getelementptr inbounds nuw %struct.z_stream_s, ptr %143, i32 0, i32 1
  store i32 0, ptr %144, align 8, !tbaa !68
  store i32 0, ptr %11, align 4
  br label %145

145:                                              ; preds = %128, %125
  call void @llvm.lifetime.end.p0(i64 4, ptr %15) #7
  %146 = load i32, ptr %11, align 4
  switch i32 %146, label %195 [
    i32 0, label %147
    i32 2, label %151
  ]

147:                                              ; preds = %145
  br label %148

148:                                              ; preds = %147
  %149 = load i32, ptr %10, align 4, !tbaa !8
  %150 = icmp eq i32 %149, 0
  br i1 %150, label %55, label %151, !llvm.loop !93

151:                                              ; preds = %148, %145
  %152 = load ptr, ptr %6, align 8, !tbaa !11
  %153 = getelementptr inbounds nuw %struct.png_struct_def, ptr %152, i32 0, i32 19
  %154 = getelementptr inbounds nuw %struct.z_stream_s, ptr %153, i32 0, i32 4
  %155 = load i32, ptr %154, align 8, !tbaa !66
  %156 = load i32, ptr %14, align 4, !tbaa !8
  %157 = sub i32 %156, %155
  store i32 %157, ptr %14, align 4, !tbaa !8
  %158 = load ptr, ptr %6, align 8, !tbaa !11
  %159 = getelementptr inbounds nuw %struct.png_struct_def, ptr %158, i32 0, i32 19
  %160 = getelementptr inbounds nuw %struct.z_stream_s, ptr %159, i32 0, i32 4
  store i32 0, ptr %160, align 8, !tbaa !66
  %161 = load i32, ptr %14, align 4, !tbaa !8
  %162 = load ptr, ptr %8, align 8, !tbaa !90
  %163 = getelementptr inbounds nuw %struct.compression_state, ptr %162, i32 0, i32 2
  store i32 %161, ptr %163, align 8, !tbaa !88
  %164 = load i32, ptr %14, align 4, !tbaa !8
  %165 = load i32, ptr %9, align 4, !tbaa !8
  %166 = add i32 %164, %165
  %167 = icmp uge i32 %166, 2147483647
  br i1 %167, label %168, label %172

168:                                              ; preds = %151
  %169 = load ptr, ptr %6, align 8, !tbaa !11
  %170 = getelementptr inbounds nuw %struct.png_struct_def, ptr %169, i32 0, i32 19
  %171 = getelementptr inbounds nuw %struct.z_stream_s, ptr %170, i32 0, i32 6
  store ptr @.str.47, ptr %171, align 8, !tbaa !64
  store i32 -4, ptr %10, align 4, !tbaa !8
  br label %175

172:                                              ; preds = %151
  %173 = load ptr, ptr %6, align 8, !tbaa !11
  %174 = load i32, ptr %10, align 4, !tbaa !8
  call void @png_zstream_error(ptr noundef %173, i32 noundef %174)
  br label %175

175:                                              ; preds = %172, %168
  %176 = load ptr, ptr %6, align 8, !tbaa !11
  %177 = getelementptr inbounds nuw %struct.png_struct_def, ptr %176, i32 0, i32 18
  store i32 0, ptr %177, align 8, !tbaa !61
  %178 = load i32, ptr %10, align 4, !tbaa !8
  %179 = icmp eq i32 %178, 1
  br i1 %179, label %180, label %190

180:                                              ; preds = %175
  %181 = load i64, ptr %13, align 8, !tbaa !30
  %182 = icmp eq i64 %181, 0
  br i1 %182, label %183, label %190

183:                                              ; preds = %180
  %184 = load ptr, ptr %8, align 8, !tbaa !90
  %185 = getelementptr inbounds nuw %struct.compression_state, ptr %184, i32 0, i32 3
  %186 = getelementptr inbounds [1024 x i8], ptr %185, i64 0, i64 0
  %187 = load ptr, ptr %8, align 8, !tbaa !90
  %188 = getelementptr inbounds nuw %struct.compression_state, ptr %187, i32 0, i32 1
  %189 = load i64, ptr %188, align 8, !tbaa !92
  call void @optimize_cmf(ptr noundef %186, i64 noundef %189)
  store i32 0, ptr %5, align 4
  store i32 1, ptr %11, align 4
  br label %192

190:                                              ; preds = %180, %175
  %191 = load i32, ptr %10, align 4, !tbaa !8
  store i32 %191, ptr %5, align 4
  store i32 1, ptr %11, align 4
  br label %192

192:                                              ; preds = %190, %183
  call void @llvm.lifetime.end.p0(i64 4, ptr %14) #7
  call void @llvm.lifetime.end.p0(i64 8, ptr %13) #7
  call void @llvm.lifetime.end.p0(i64 8, ptr %12) #7
  br label %193

193:                                              ; preds = %192, %25
  call void @llvm.lifetime.end.p0(i64 4, ptr %10) #7
  %194 = load i32, ptr %5, align 4
  ret i32 %194

195:                                              ; preds = %145
  unreachable
}