; Function Attrs: nounwind uwtable
define internal fastcc i32 @png_text_compress(ptr noalias noundef %0, i32 noundef range(i32 1766015824, 2052348021) %1, ptr noundef nonnull %2, i32 noundef %3) unnamed_addr #1 {
  %5 = getelementptr inbounds nuw i8, ptr %2, i64 8
  %6 = load i64, ptr %5, align 8, !tbaa !111
  %7 = tail call fastcc i32 @png_deflate_claim(ptr noundef %0, i32 noundef %1, i64 noundef %6)
  %.not = icmp eq i32 %7, 0
  br i1 %.not, label %8, label %optimize_cmf.exit

8:                                                ; preds = %4
  %9 = getelementptr inbounds nuw i8, ptr %0, i64 432
  %10 = load i64, ptr %5, align 8, !tbaa !111
  %11 = load ptr, ptr %2, align 8, !tbaa !109
  %12 = getelementptr inbounds nuw i8, ptr %0, i64 320
  store ptr %11, ptr %12, align 8, !tbaa !77
  %13 = getelementptr inbounds nuw i8, ptr %0, i64 328
  %14 = getelementptr inbounds nuw i8, ptr %2, i64 20
  %15 = getelementptr inbounds nuw i8, ptr %0, i64 344
  store ptr %14, ptr %15, align 8, !tbaa !75
  %16 = getelementptr inbounds nuw i8, ptr %0, i64 352
  store i32 1024, ptr %16, align 8, !tbaa !76
  %17 = getelementptr inbounds nuw i8, ptr %0, i64 440
  br label %18

18:                                               ; preds = %39, %8
  %.068 = phi ptr [ %9, %8 ], [ %.169, %39 ]
  %.066 = phi i64 [ %10, %8 ], [ %44, %39 ]
  %.065 = phi i32 [ 1024, %8 ], [ %.1, %39 ]
  %spec.select105 = tail call i64 @llvm.umin.i64(i64 %.066, i64 4294967295)
  %spec.select = trunc nuw i64 %spec.select105 to i32
  %19 = sub i64 %.066, %spec.select105
  store i32 %spec.select, ptr %13, align 8, !tbaa !78
  %20 = load i32, ptr %16, align 8, !tbaa !76
  %21 = icmp eq i32 %20, 0
  br i1 %21, label %22, label %39

22:                                               ; preds = %18
  %23 = add i32 %.065, %3
  %24 = icmp slt i32 %23, 0
  br i1 %24, label %.thread91, label %25

25:                                               ; preds = %22
  %26 = load ptr, ptr %.068, align 8, !tbaa !36
  %27 = icmp eq ptr %26, null
  br i1 %27, label %28, label %35

28:                                               ; preds = %25
  %29 = load i32, ptr %17, align 8, !tbaa !70
  %30 = zext i32 %29 to i64
  %31 = add nuw nsw i64 %30, 8
  %32 = tail call noalias ptr @png_malloc_base(ptr noundef nonnull %0, i64 noundef %31) #12
  %33 = icmp eq ptr %32, null
  br i1 %33, label %.thread91, label %34

34:                                               ; preds = %28
  store ptr null, ptr %32, align 8, !tbaa !37
  store ptr %32, ptr %.068, align 8, !tbaa !36
  br label %35

35:                                               ; preds = %25, %34
  %.0 = phi ptr [ %32, %34 ], [ %26, %25 ]
  %36 = getelementptr inbounds nuw i8, ptr %.0, i64 8
  store ptr %36, ptr %15, align 8, !tbaa !75
  %37 = load i32, ptr %17, align 8, !tbaa !70
  store i32 %37, ptr %16, align 8, !tbaa !76
  %38 = add i32 %37, %.065
  br label %39

39:                                               ; preds = %18, %35
  %.169 = phi ptr [ %.0, %35 ], [ %.068, %18 ]
  %.1 = phi i32 [ %38, %35 ], [ %.065, %18 ]
  %.not84 = icmp eq i64 %19, 0
  %40 = select i1 %.not84, i32 4, i32 0
  %41 = tail call i32 @deflate(ptr noundef nonnull %12, i32 noundef %40) #12
  %42 = load i32, ptr %13, align 8, !tbaa !78
  %43 = zext i32 %42 to i64
  %44 = add i64 %19, %43
  store i32 0, ptr %13, align 8, !tbaa !78
  %45 = icmp eq i32 %41, 0
  br i1 %45, label %18, label %.thread91, !llvm.loop !126

.thread91:                                        ; preds = %22, %28, %39
  %.3101 = phi i32 [ %.1, %39 ], [ %.065, %28 ], [ %.065, %22 ]
  %.167100 = phi i64 [ %44, %39 ], [ %19, %28 ], [ %19, %22 ]
  %.27699 = phi i32 [ %41, %39 ], [ -4, %28 ], [ -4, %22 ]
  %46 = load i32, ptr %16, align 8, !tbaa !76
  %47 = sub i32 %.3101, %46
  store i32 0, ptr %16, align 8, !tbaa !76
  %48 = getelementptr inbounds nuw i8, ptr %2, i64 16
  store i32 %47, ptr %48, align 8, !tbaa !112
  %49 = add i32 %47, %3
  %50 = icmp ugt i32 %49, 2147483646
  br i1 %50, label %.thread102, label %53

.thread102:                                       ; preds = %.thread91
  %51 = getelementptr inbounds nuw i8, ptr %0, i64 368
  store ptr @.str.47, ptr %51, align 8, !tbaa !74
  %52 = getelementptr inbounds nuw i8, ptr %0, i64 312
  store i32 0, ptr %52, align 8, !tbaa !68
  br label %optimize_cmf.exit

53:                                               ; preds = %.thread91
  tail call void @png_zstream_error(ptr noundef nonnull %0, i32 noundef %.27699) #12
  %54 = getelementptr inbounds nuw i8, ptr %0, i64 312
  store i32 0, ptr %54, align 8, !tbaa !68
  %55 = icmp eq i32 %.27699, 1
  %56 = icmp eq i64 %.167100, 0
  %or.cond = select i1 %55, i1 %56, i1 false
  br i1 %or.cond, label %57, label %optimize_cmf.exit

57:                                               ; preds = %53
  %58 = load i64, ptr %5, align 8, !tbaa !111
  %59 = icmp ult i64 %58, 16385
  br i1 %59, label %60, label %optimize_cmf.exit

60:                                               ; preds = %57
  %61 = load i8, ptr %14, align 1, !tbaa !3
  %62 = zext i8 %61 to i32
  %63 = and i32 %62, 15
  %64 = icmp eq i32 %63, 8
  %65 = and i32 %62, 240
  %66 = icmp samesign ult i32 %65, 113
  %or.cond.i = select i1 %64, i1 %66, i1 false
  br i1 %or.cond.i, label %67, label %optimize_cmf.exit

67:                                               ; preds = %60
  %68 = lshr i32 %62, 4
  %69 = shl nuw nsw i32 128, %68
  %70 = zext nneg i32 %69 to i64
  %.not.i = icmp samesign ugt i64 %58, %70
  br i1 %.not.i, label %optimize_cmf.exit, label %.preheader.i

.preheader.i:                                     ; preds = %67, %.preheader.i
  %.022.i = phi i32 [ %72, %.preheader.i ], [ %68, %67 ]
  %.0.i = phi i32 [ %71, %.preheader.i ], [ %69, %67 ]
  %71 = lshr i32 %.0.i, 1
  %72 = add i32 %.022.i, -1
  %73 = icmp ne i32 %72, 0
  %74 = zext nneg i32 %71 to i64
  %75 = icmp samesign ule i64 %58, %74
  %76 = select i1 %73, i1 %75, i1 false
  br i1 %76, label %.preheader.i, label %77, !llvm.loop !79

77:                                               ; preds = %.preheader.i
  %78 = shl i32 %72, 4
  %79 = or disjoint i32 %78, 8
  %80 = trunc i32 %79 to i8
  store i8 %80, ptr %14, align 1, !tbaa !3
  %81 = getelementptr inbounds nuw i8, ptr %2, i64 21
  %82 = load i8, ptr %81, align 1, !tbaa !3
  %83 = and i8 %82, -32
  %84 = zext i8 %83 to i32
  %85 = shl i32 %79, 8
  %86 = or disjoint i32 %85, %84
  %87 = urem i32 %86, 31
  %88 = trunc nuw nsw i32 %87 to i8
  %89 = or disjoint i8 %83, %88
  %90 = xor i8 %89, 31
  store i8 %90, ptr %81, align 1, !tbaa !3
  br label %optimize_cmf.exit

optimize_cmf.exit:                                ; preds = %77, %67, %60, %57, %.thread102, %53, %4
  %.078 = phi i32 [ %7, %4 ], [ %.27699, %53 ], [ -4, %.thread102 ], [ 0, %57 ], [ 0, %60 ], [ 0, %67 ], [ 0, %77 ]
  ret i32 %.078
}